; Function Attrs: mustprogress uwtable
define void @_ZNK8facebook5velox6common9BoolValue9serializeEv(ptr noalias sret(%"struct.folly::dynamic") align 8 %agg.result, ptr nocapture noundef nonnull readonly align 8 dereferenceable(24) %this) unnamed_addr #0 align 2 personality ptr @__gxx_personality_v0 {
invoke.cont:
  %ref.tmp = alloca %"struct.folly::dynamic", align 8
  tail call void @_ZNK8facebook5velox6common6Filter13serializeBaseESt17basic_string_viewIcSt11char_traitsIcEE(ptr sret(%"struct.folly::dynamic") align 8 %agg.result, ptr noundef nonnull align 8 dereferenceable(16) %this, i64 9, ptr nonnull @.str.4)
  %value_ = getelementptr inbounds i8, ptr %this, i64 16
  %0 = load i8, ptr %value_, align 8
  %1 = and i8 %0, 1
  %u_.i = getelementptr inbounds i8, ptr %ref.tmp, i64 8
  store ptr null, ptr %u_.i, align 8
  store i32 2, ptr %ref.tmp, align 8
  store i8 %1, ptr %u_.i, align 8
  %call = invoke noundef nonnull align 8 dereferenceable(40) ptr @_ZNR5folly7dynamicixENS_5RangeIPKcEE(ptr noundef nonnull align 8 dereferenceable(40) %agg.result, ptr nonnull @.str.30, ptr nonnull getelementptr inbounds ([6 x i8], ptr @.str.30, i64 0, i64 5))
          to label %invoke.cont5 unwind label %lpad3

invoke.cont5:                                     ; preds = %invoke.cont
  %call6 = call noundef nonnull align 8 dereferenceable(40) ptr @_ZN5folly7dynamicaSEOS0_(ptr noundef nonnull align 8 dereferenceable(40) %call, ptr noundef nonnull align 8 dereferenceable(40) %ref.tmp) #34
  call void @_ZN5folly7dynamic7destroyEv(ptr noundef nonnull align 8 dereferenceable(40) %ref.tmp) #34
  ret void

lpad3:                                            ; preds = %invoke.cont
  %2 = landingpad { ptr, i32 }
          cleanup
  call void @_ZN5folly7dynamic7destroyEv(ptr noundef nonnull align 8 dereferenceable(40) %ref.tmp) #34
  call void @_ZN5folly7dynamic7destroyEv(ptr noundef nonnull align 8 dereferenceable(40) %agg.result) #34
  resume { ptr, i32 } %2
}